featherpad:_IO_stdin_used
featherpad:_Z17qInitResources_fpv
featherpad:_Z20qCleanupResources_fpv
featherpad:_ZN10FeatherPad10FileDialog11qt_metacallEN11QMetaObject4CallEiPPv
featherpad:_ZN10FeatherPad10FileDialog11qt_metacastEPKc
featherpad:_ZN10FeatherPad10FileDialog16staticMetaObjectE
featherpad:_ZN10FeatherPad10FontDialog11qt_metacallEN11QMetaObject4CallEiPPv
featherpad:_ZN10FeatherPad10FontDialog11qt_metacastEPKc
featherpad:_ZN10FeatherPad10FontDialog16staticMetaObjectE
featherpad:_ZN10FeatherPad10FontDialogC1ERK5QFontP7QWidget
featherpad:_ZN10FeatherPad10FontDialogC2ERK5QFontP7QWidget
featherpad:_ZN10FeatherPad10FontDialogD0Ev
featherpad:_ZN10FeatherPad10FontDialogD1Ev
featherpad:_ZN10FeatherPad10FontDialogD2Ev
featherpad:_ZN10FeatherPad10ListWidget11qt_metacallEN11QMetaObject4CallEiPPv
featherpad:_ZN10FeatherPad10ListWidget11qt_metacastEPKc
featherpad:_ZN10FeatherPad10ListWidget12rowsInsertedERK11QModelIndexii
featherpad:_ZN10FeatherPad10ListWidget13closeSidePaneEv
featherpad:_ZN10FeatherPad10ListWidget14mouseMoveEventEP11QMouseEvent
featherpad:_ZN10FeatherPad10ListWidget15mousePressEventEP11QMouseEvent
featherpad:_ZN10FeatherPad10ListWidget15rowsAreInsertedEii
featherpad:_ZN10FeatherPad10ListWidget16staticMetaObjectE
featherpad:_ZN10FeatherPad10ListWidget18currentItemUpdatedEP15QListWidgetItem
featherpad:_ZN10FeatherPad10ListWidget19scrollToCurrentItemEv
featherpad:_ZN10FeatherPad10ListWidget9closeItemEP15QListWidgetItem
featherpad:_ZN10FeatherPad10ListWidgetC1EP7QWidget
featherpad:_ZN10FeatherPad10ListWidgetC2EP7QWidget
featherpad:_ZN10FeatherPad10MessageBox11qt_metacallEN11QMetaObject4CallEiPPv
featherpad:_ZN10FeatherPad10MessageBox11qt_metacastEPKc
featherpad:_ZN10FeatherPad10MessageBox16staticMetaObjectE
featherpad:_ZN10FeatherPad10PrefDialog10closeEventEP11QCloseEvent
featherpad:_ZN10FeatherPad10PrefDialog10prefIndentEi
featherpad:_ZN10FeatherPad10PrefDialog10prefSyntaxEi
featherpad:_ZN10FeatherPad10PrefDialog10showPromptERK7QStringb
featherpad:_ZN10FeatherPad10PrefDialog11eventFilterEP7QObjectP6QEvent
featherpad:_ZN10FeatherPad10PrefDialog11prefCommandERK7QString
featherpad:_ZN10FeatherPad10PrefDialog11prefEndingsEi
featherpad:_ZN10FeatherPad10PrefDialog11prefExecuteEi
featherpad:_ZN10FeatherPad10PrefDialog11prefMenubarEi
featherpad:_ZN10FeatherPad10PrefDialog11prefTextTabEv
featherpad:_ZN10FeatherPad10PrefDialog11prefToolbarEi
featherpad:_ZN10FeatherPad10PrefDialog11qt_metacallEN11QMetaObject4CallEiPPv
featherpad:_ZN10FeatherPad10PrefDialog11qt_metacastEPKc
featherpad:_ZN10FeatherPad10PrefDialog12prefAutoSaveEi
featherpad:_ZN10FeatherPad10PrefDialog12prefColValueEi
featherpad:_ZN10FeatherPad10PrefDialog13prefMaxSHSizeEi
featherpad:_ZN10FeatherPad10PrefDialog13prefSearchbarEi
featherpad:_ZN10FeatherPad10PrefDialog13prefShortcutsEv
featherpad:_ZN10FeatherPad10PrefDialog13prefStartSizeEi
featherpad:_ZN10FeatherPad10PrefDialog13prefStatusbarEi
featherpad:_ZN10FeatherPad10PrefDialog13showWhatsThisEv
featherpad:_ZN10FeatherPad10PrefDialog14prefPastePathsEv
featherpad:_ZN10FeatherPad10PrefDialog14prefSpellCheckEi
featherpad:_ZN10FeatherPad10PrefDialog14prefTextMarginEi
featherpad:_ZN10FeatherPad10PrefDialog14prefWhiteSpaceEi
featherpad:_ZN10FeatherPad10PrefDialog15prefApplySyntaxEv
featherpad:_ZN10FeatherPad10PrefDialog15prefAutoBracketEi
featherpad:_ZN10FeatherPad10PrefDialog15prefAutoReplaceEi
featherpad:_ZN10FeatherPad10PrefDialog15prefSkipNontextEi
featherpad:_ZN10FeatherPad10PrefDialog15prefSplitterPosEi
featherpad:_ZN10FeatherPad10PrefDialog15prefTabPositionEv
featherpad:_ZN10FeatherPad10PrefDialog15prefTextTabSizeEi
featherpad:_ZN10FeatherPad10PrefDialog15prefThickCursorEv
featherpad:_ZN10FeatherPad10PrefDialog16onShortcutChangeEP16QTableWidgetItem
featherpad:_ZN10FeatherPad10PrefDialog16prefMenubarTitleEi
featherpad:_ZN10FeatherPad10PrefDialog16prefNativeDialogEi
featherpad:_ZN10FeatherPad10PrefDialog16prefSelHighlightEv
featherpad:_ZN10FeatherPad10PrefDialog16prefSidePaneModeEi
featherpad:_ZN10FeatherPad10PrefDialog16prefStatusCursorEi
featherpad:_ZN10FeatherPad10PrefDialog16staticMetaObjectE
featherpad:_ZN10FeatherPad10PrefDialog17changeSyntaxColorEii
featherpad:_ZN10FeatherPad10PrefDialog17prefApplyAutoSaveEv
featherpad:_ZN10FeatherPad10PrefDialog17prefDarkColSchemeEi
featherpad:_ZN10FeatherPad10PrefDialog17prefHideSingleTabEi
featherpad:_ZN10FeatherPad10PrefDialog17prefOpenInWindowsEi
featherpad:_ZN10FeatherPad10PrefDialog17prefSearchHistoryEi
featherpad:_ZN10FeatherPad10PrefDialog17prefTabWrapAroundEi
featherpad:_ZN10FeatherPad10PrefDialog17prefVLineDistanceEi
featherpad:_ZN10FeatherPad10PrefDialog18prefSaveUnmodifiedEv
featherpad:_ZN10FeatherPad10PrefDialog19disableMenubarAccelEi
featherpad:_ZN10FeatherPad10PrefDialog19prefAppendEmptyLineEi
featherpad:_ZN10FeatherPad10PrefDialog19prefApplyDateFormatEv
featherpad:_ZN10FeatherPad10PrefDialog19prefRecentFilesKindEv
featherpad:_ZN10FeatherPad10PrefDialog20prefCloseWithLastTabEi
featherpad:_ZN10FeatherPad10PrefDialog21changeWhitespaceValueEi
featherpad:_ZN10FeatherPad10PrefDialog21prefInertialScrollingEi
featherpad:_ZN10FeatherPad10PrefDialog21prefRecentFilesNumberEi
featherpad:_ZN10FeatherPad10PrefDialog21prefSaveLastFilesListEi
featherpad:_ZN10FeatherPad10PrefDialog22changeCurLineHighlightEi
featherpad:_ZN10FeatherPad10PrefDialog23restoreDefaultShortcutsEv
featherpad:_ZN10FeatherPad10PrefDialog24prefRemoveTrailingSpacesEi
featherpad:_ZN10FeatherPad10PrefDialog26restoreDefaultSyntaxColorsEv
featherpad:_ZN10FeatherPad10PrefDialog7addDictEv
featherpad:_ZN10FeatherPad10PrefDialog7prefPosEi
featherpad:_ZN10FeatherPad10PrefDialog8prefFontEi
featherpad:_ZN10FeatherPad10PrefDialog8prefIconEi
featherpad:_ZN10FeatherPad10PrefDialog8prefLineEi
featherpad:_ZN10FeatherPad10PrefDialog8prefSizeEi
featherpad:_ZN10FeatherPad10PrefDialog8prefWrapEi
featherpad:_ZN10FeatherPad10PrefDialog9onClosingEv
featherpad:_ZN10FeatherPad10PrefDialog9prefVLineEi
featherpad:_ZN10FeatherPad10PrefDialogC1EP7QWidget
featherpad:_ZN10FeatherPad10PrefDialogC2EP7QWidget
featherpad:_ZN10FeatherPad10PrefDialogD0Ev
featherpad:_ZN10FeatherPad10PrefDialogD1Ev
featherpad:_ZN10FeatherPad10PrefDialogD2Ev
featherpad:_ZN10FeatherPad10VScrollBar10wheelEventEP11QWheelEvent
featherpad:_ZN10FeatherPad10VScrollBar11qt_metacallEN11QMetaObject4CallEiPPv
featherpad:_ZN10FeatherPad10VScrollBar11qt_metacastEPKc
featherpad:_ZN10FeatherPad10VScrollBar16staticMetaObjectE
featherpad:_ZN10FeatherPad10VScrollBarC1EP7QWidget
featherpad:_ZN10FeatherPad10VScrollBarC2EP7QWidget
featherpad:_ZN10FeatherPad10WarningBar11qt_metacallEN11QMetaObject4CallEiPPv
featherpad:_ZN10FeatherPad10WarningBar11qt_metacastEPKc
featherpad:_ZN10FeatherPad10WarningBar16staticMetaObjectE
featherpad:_ZN10FeatherPad11FPsingleton10cursorInfoERK7QStringRiS4_
featherpad:_ZN10FeatherPad11FPsingleton10handleInfoERK11QStringList
featherpad:_ZN10FeatherPad11FPsingleton11processInfoERK11QStringListRlRiS5_Pb
featherpad:_ZN10FeatherPad11FPsingleton11qt_metacallEN11QMetaObject4CallEiPPv
featherpad:_ZN10FeatherPad11FPsingleton11qt_metacastEPKc
featherpad:_ZN10FeatherPad11FPsingleton13addRecentFileERK7QStringb
featherpad:_ZN10FeatherPad11FPsingleton14sendRecentFileERK7QStringb
featherpad:_ZN10FeatherPad11FPsingleton16staticMetaObjectE
featherpad:_ZN10FeatherPad11FPsingleton18quitSignalReceivedEv
featherpad:_ZN10FeatherPad11FPsingleton4initEb
featherpad:_ZN10FeatherPad11FPsingleton6newWinERK11QStringListii
featherpad:_ZN10FeatherPad11FPsingleton8firstWinERK11QStringList
featherpad:_ZN10FeatherPad11FPsingleton8quittingEv
featherpad:_ZN10FeatherPad11FPsingleton8sendInfoERK11QStringList
featherpad:_ZN10FeatherPad11FPsingleton9removeWinEPNS_5FPwinE
featherpad:_ZN10FeatherPad11FPsingletonC1ERiPPc
featherpad:_ZN10FeatherPad11FPsingletonC2ERiPPc
featherpad:_ZN10FeatherPad11FPsingletonD0Ev
featherpad:_ZN10FeatherPad11FPsingletonD1Ev
featherpad:_ZN10FeatherPad11FPsingletonD2Ev
featherpad:_ZN10FeatherPad11Highlighter10isJSQuotedERK7QStringi
featherpad:_ZN10FeatherPad11Highlighter10isXmlValueERK7QStringii
featherpad:_ZN10FeatherPad11Highlighter10javaBracesERK7QString
featherpad:_ZN10FeatherPad11Highlighter10urlPatternE
featherpad:_ZN10FeatherPad11Highlighter10xmlCommentERK7QString
featherpad:_ZN10FeatherPad11Highlighter11isTclQuotedERK7QStringii
featherpad:_ZN10FeatherPad11Highlighter11isXmlQuotedERK7QStringi
featherpad:_ZN10FeatherPad11Highlighter11notePatternE
featherpad:_ZN10FeatherPad11Highlighter11pascalQuoteERK7QStringi
featherpad:_ZN10FeatherPad11Highlighter11qt_metacallEN11QMetaObject4CallEiPPv
featherpad:_ZN10FeatherPad11Highlighter11qt_metacastEPKc
featherpad:_ZN10FeatherPad11Highlighter12SH_SkipQuoteERK7QStringib
featherpad:_ZN10FeatherPad11Highlighter12htmlBracketsERK7QStringi
featherpad:_ZN10FeatherPad11Highlighter12isPerlQuotedERK7QStringi
featherpad:_ZN10FeatherPad11Highlighter12isRustQuotedERK7QStringii
featherpad:_ZN10FeatherPad11Highlighter12latexFormulaERK7QString
featherpad:_ZN10FeatherPad11Highlighter13fountainFontsERK7QString
featherpad:_ZN10FeatherPad11Highlighter13isInsideRegexERK7QStringi
featherpad:_ZN10FeatherPad11Highlighter13isMLCommentedERK7QStringiii
featherpad:_ZN10FeatherPad11Highlighter13isXxmlCommentERK7QStringii
featherpad:_ZN10FeatherPad11Highlighter13markdownFontsERK7QString
featherpad:_ZN10FeatherPad11Highlighter14cssHighlighterERK7QStringbi
featherpad:_ZN10FeatherPad11Highlighter14highlightBlockERK7QString
featherpad:_ZN10FeatherPad11Highlighter14htmlJavascriptERK7QString
featherpad:_ZN10FeatherPad11Highlighter14isCSSCommentedERK7QStringRK5QListIiEiib
featherpad:_ZN10FeatherPad11Highlighter14isEscapedQuoteERK7QStringibb
featherpad:_ZN10FeatherPad11Highlighter14isEscapedRegexERK7QStringi
featherpad:_ZN10FeatherPad11Highlighter14isHereDocumentERK7QString
featherpad:_ZN10FeatherPad11Highlighter14isYamlKeyQuoteERK7QStringi
featherpad:_ZN10FeatherPad11Highlighter14multiLineQuoteERK7QStringii
featherpad:_ZN10FeatherPad11Highlighter14multiLineRegexERK7QStringi
featherpad:_ZN10FeatherPad11Highlighter14yamlOpenBracesERK7QStringRK18QRegularExpressionS6_ibb
featherpad:_ZN10FeatherPad11Highlighter15SH_CmndSubstVarERK7QStringPNS_13TextBlockDataEiRK4QSetIiE
featherpad:_ZN10FeatherPad11Highlighter15markdownCommentERK7QString
featherpad:_ZN10FeatherPad11Highlighter15pythonMLCommentERK7QStringi
featherpad:_ZN10FeatherPad11Highlighter16multiLineCommentERK7QStringiRK18QRegularExpressionS6_iRK15QTextCharFormat
featherpad:_ZN10FeatherPad11Highlighter16multiLineJSQuoteERK7QStringii
featherpad:_ZN10FeatherPad11Highlighter16staticMetaObjectE
featherpad:_ZN10FeatherPad11Highlighter16yamlLiteralBlockERK7QString
featherpad:_ZN10FeatherPad11Highlighter17SH_MultiLineQuoteERK7QString
featherpad:_ZN10FeatherPad11Highlighter17highlightLuaBlockERK7QString
featherpad:_ZN10FeatherPad11Highlighter17highlightTclBlockERK7QString
featherpad:_ZN10FeatherPad11Highlighter17highlightXmlBlockERK7QString
featherpad:_ZN10FeatherPad11Highlighter17isEscapedTclQuoteERK7QStringiib
featherpad:_ZN10FeatherPad11Highlighter17isInsidePerlRegexERK7QStringi
featherpad:_ZN10FeatherPad11Highlighter17isInsideRubyRegexERK7QStringi
featherpad:_ZN10FeatherPad11Highlighter17markdownMultiLineERK7QStringS3_iiRK15QTextCharFormat
featherpad:_ZN10FeatherPad11Highlighter17multiLineTclQuoteERK7QString
featherpad:_ZN10FeatherPad11Highlighter17singleLineCommentERK7QStringi
featherpad:_ZN10FeatherPad11Highlighter18highlightJsonBlockERK7QString
featherpad:_ZN10FeatherPad11Highlighter18highlightReSTBlockERK7QString
featherpad:_ZN10FeatherPad11Highlighter18highlightYamlBlockERK7QString
featherpad:_ZN10FeatherPad11Highlighter18htmlCSSHighlighterERK7QStringi
featherpad:_ZN10FeatherPad11Highlighter18isEscapedPerlRegexERK7QStringi
featherpad:_ZN10FeatherPad11Highlighter18isEscapedRubyRegexERK7QStringi
featherpad:_ZN10FeatherPad11Highlighter18isQuotedInCSSValueERK7QStringiiib
featherpad:_ZN10FeatherPad11Highlighter18javaMainFormattingERK7QString
featherpad:_ZN10FeatherPad11Highlighter18multiLinePerlQuoteERK7QString
featherpad:_ZN10FeatherPad11Highlighter18multiLinePerlRegexERK7QString
featherpad:_ZN10FeatherPad11Highlighter18multiLineRubyRegexERK7QString
featherpad:_ZN10FeatherPad11Highlighter18multiLineRustQuoteERK7QString
featherpad:_ZN10FeatherPad11Highlighter18reSTMainFormattingEiRK7QString
featherpad:_ZN10FeatherPad11Highlighter19cmakeDoubleBracketsERK7QStringib
featherpad:_ZN10FeatherPad11Highlighter19formatAttrSelectorsERK7QStringii
featherpad:_ZN10FeatherPad11Highlighter19formatInsideCommandERK7QStringiRiR4QSetIiEbi
featherpad:_ZN10FeatherPad11Highlighter19isFountainLineBlankERK10QTextBlock
featherpad:_ZN10FeatherPad11Highlighter19isInsideCSSValueUrlERK7QStringiiib
featherpad:_ZN10FeatherPad11Highlighter19multiLineLuaCommentERK7QString
featherpad:_ZN10FeatherPad11Highlighter20debControlFormattingERK7QString
featherpad:_ZN10FeatherPad11Highlighter20isInsideAttrSelectorERK7QStringii
featherpad:_ZN10FeatherPad11Highlighter20multiLineJavaCommentERK7QString
featherpad:_ZN10FeatherPad11Highlighter21singleLineJavaCommentERK7QStringi
featherpad:_ZN10FeatherPad11Highlighter22highlightFountainBlockERK7QString
featherpad:_ZN10FeatherPad11Highlighter22highlightMarkdownBlockERK7QString
featherpad:_ZN10FeatherPad11Highlighter22isCmakeDoubleBracketedERK7QStringii
featherpad:_ZN10FeatherPad11Highlighter22markdownSingleLineCodeERK7QString
featherpad:_ZN10FeatherPad11Highlighter22multiLinePascalCommentERK7QString
featherpad:_ZN10FeatherPad11Highlighter23insideTclBracedVariableERK7QStringiib
featherpad:_ZN10FeatherPad11Highlighter23singleLinePascalCommentERK7QStringi
featherpad:_ZN10FeatherPad11Highlighter25setFormatWithoutOverwriteEiiRK15QTextCharFormatS3_
featherpad:_ZN10FeatherPad11Highlighter5typesEv
featherpad:_ZN10FeatherPad11Highlighter7jsonKeyERK7QStringiRiS4_S4_RbRS1_
featherpad:_ZN10FeatherPad11Highlighter8isQuotedERK7QStringibi
featherpad:_ZN10FeatherPad11Highlighter8keywordsERK7QString
featherpad:_ZN10FeatherPad11Highlighter9JavaQuoteERK7QStringi
featherpad:_ZN10FeatherPad11Highlighter9jsonValueERK7QStringiRiS4_S4_RbRS1_
featherpad:_ZN10FeatherPad11Highlighter9tomlQuoteERK7QString
featherpad:_ZN10FeatherPad11Highlighter9xmlQuotesERK7QString
featherpad:_ZN10FeatherPad11Highlighter9xmlValuesERK7QString
featherpad:_ZN10FeatherPad11HighlighterC1EP13QTextDocumentRK7QStringRK11QTextCursorS8_bbbiRK5QHashIS3_6QColorE
featherpad:_ZN10FeatherPad11HighlighterC2EP13QTextDocumentRK7QStringRK11QTextCursorS8_bbbiRK5QHashIS3_6QColorE
featherpad:_ZN10FeatherPad11HighlighterD0Ev
featherpad:_ZN10FeatherPad11HighlighterD1Ev
featherpad:_ZN10FeatherPad11HighlighterD2Ev
featherpad:_ZN10FeatherPad11SpellDialog11qt_metacallEN11QMetaObject4CallEiPPv
featherpad:_ZN10FeatherPad11SpellDialog11qt_metacastEPKc
featherpad:_ZN10FeatherPad11SpellDialog12spellCheckedEi
featherpad:_ZN10FeatherPad11SpellDialog16staticMetaObjectE
featherpad:_ZN10FeatherPad11SpellDialog9checkWordERK7QString
featherpad:_ZN10FeatherPad11SpellDialogC1EPNS_12SpellCheckerERK7QStringbP7QWidget
featherpad:_ZN10FeatherPad11SpellDialogC2EPNS_12SpellCheckerERK7QStringbP7QWidget
featherpad:_ZN10FeatherPad11SpellDialogD0Ev
featherpad:_ZN10FeatherPad11SpellDialogD1Ev
featherpad:_ZN10FeatherPad11SpellDialogD2Ev
featherpad:_ZN10FeatherPad11fromDesktopEv
featherpad:_ZN10FeatherPad12MenuBarTitle10paintEventEP11QPaintEvent
featherpad:_ZN10FeatherPad12MenuBarTitle11qt_metacallEN11QMetaObject4CallEiPPv
featherpad:_ZN10FeatherPad12MenuBarTitle11qt_metacastEPKc
featherpad:_ZN10FeatherPad12MenuBarTitle13doubleClickedEv
featherpad:_ZN10FeatherPad12MenuBarTitle16staticMetaObjectE
featherpad:_ZN10FeatherPad12MenuBarTitle21mouseDoubleClickEventEP11QMouseEvent
featherpad:_ZN10FeatherPad12MenuBarTitle8setTitleERK7QString
featherpad:_ZN10FeatherPad12MenuBarTitleC1EP7QWidget6QFlagsIN2Qt10WindowTypeEE
featherpad:_ZN10FeatherPad12MenuBarTitleC2EP7QWidget6QFlagsIN2Qt10WindowTypeEE
featherpad:_ZN10FeatherPad12SpellChecker10ignoreWordERK7QString
featherpad:_ZN10FeatherPad12SpellChecker17addToUserWordlistERK7QString
featherpad:_ZN10FeatherPad12SpellChecker5spellERK7QString
featherpad:_ZN10FeatherPad12SpellChecker7suggestERK7QString
featherpad:_ZN10FeatherPad12SpellCheckerC1ERK7QStringS3_
featherpad:_ZN10FeatherPad12SpellCheckerC2ERK7QStringS3_
featherpad:_ZN10FeatherPad12SpellCheckerD1Ev
featherpad:_ZN10FeatherPad12SpellCheckerD2Ev
featherpad:_ZN10FeatherPad12signalDaemon11qt_metacallEN11QMetaObject4CallEiPPv
featherpad:_ZN10FeatherPad12signalDaemon11qt_metacastEPKc
featherpad:_ZN10FeatherPad12signalDaemon11watchSignalEi
featherpad:_ZN10FeatherPad12signalDaemon12handleSigHupEv
featherpad:_ZN10FeatherPad12signalDaemon12handleSigINTEv
featherpad:_ZN10FeatherPad12signalDaemon13handleSigQUITEv
featherpad:_ZN10FeatherPad12signalDaemon13handleSigTermEv
featherpad:_ZN10FeatherPad12signalDaemon16hupSignalHandlerEi
featherpad:_ZN10FeatherPad12signalDaemon16intSignalHandlerEi
featherpad:_ZN10FeatherPad12signalDaemon16staticMetaObjectE
featherpad:_ZN10FeatherPad12signalDaemon16watchUnixSignalsEv
featherpad:_ZN10FeatherPad12signalDaemon17quitSignalHandlerEi
featherpad:_ZN10FeatherPad12signalDaemon17termSignalHandlerEi
featherpad:_ZN10FeatherPad12signalDaemon7sigQUITEv
featherpad:_ZN10FeatherPad12signalDaemon8sighupFdE
featherpad:_ZN10FeatherPad12signalDaemon8sigintFdE
featherpad:_ZN10FeatherPad12signalDaemon9sigquitFdE
featherpad:_ZN10FeatherPad12signalDaemon9sigtermFdE
featherpad:_ZN10FeatherPad12signalDaemonC1EP7QObject
featherpad:_ZN10FeatherPad12signalDaemonC2EP7QObject
featherpad:_ZN10FeatherPad12signalDaemonD0Ev
featherpad:_ZN10FeatherPad12signalDaemonD1Ev
featherpad:_ZN10FeatherPad12signalDaemonD2Ev
featherpad:_ZN10FeatherPad12symbolicIcon4iconERK7QString
featherpad:_ZN10FeatherPad12validateUTF8E10QByteArray
featherpad:_ZN10FeatherPad13SessionDialog10showPromptENS0_6PROMPTE
featherpad:_ZN10FeatherPad13SessionDialog10showPromptERK7QString
featherpad:_ZN10FeatherPad13SessionDialog11closePromptEv
featherpad:_ZN10FeatherPad13SessionDialog11eventFilterEP7QObjectP6QEvent
featherpad:_ZN10FeatherPad13SessionDialog11qt_metacallEN11QMetaObject4CallEiPPv
featherpad:_ZN10FeatherPad13SessionDialog11qt_metacastEPKc
featherpad:_ZN10FeatherPad13SessionDialog11saveSessionEv
featherpad:_ZN10FeatherPad13SessionDialog12openSessionsEv
featherpad:_ZN10FeatherPad13SessionDialog12showMainPageEv
featherpad:_ZN10FeatherPad13SessionDialog13renameSessionEv
featherpad:_ZN10FeatherPad13SessionDialog14removeSelectedEv
featherpad:_ZN10FeatherPad13SessionDialog14showPromptPageEv
featherpad:_ZN10FeatherPad13SessionDialog15showContextMenuERK6QPoint
featherpad:_ZN10FeatherPad13SessionDialog16OnCommittingNameEP7QWidget
featherpad:_ZN10FeatherPad13SessionDialog16selectionChangedEv
featherpad:_ZN10FeatherPad13SessionDialog16staticMetaObjectE
featherpad:_ZN10FeatherPad13SessionDialog17reallyApplyFilterEv
featherpad:_ZN10FeatherPad13SessionDialog17reallySaveSessionEv
featherpad:_ZN10FeatherPad13SessionDialog18onEmptinessChangedEb
featherpad:_ZN10FeatherPad13SessionDialog19reallyRenameSessionEv
featherpad:_ZN10FeatherPad13SessionDialog6filterERK7QString
featherpad:_ZN10FeatherPad13SessionDialog9removeAllEv
featherpad:_ZN10FeatherPad13SessionDialogC1EP7QWidget
featherpad:_ZN10FeatherPad13SessionDialogC2EP7QWidget
featherpad:_ZN10FeatherPad13SessionDialogD0Ev
featherpad:_ZN10FeatherPad13SessionDialogD1Ev
featherpad:_ZN10FeatherPad13SessionDialogD2Ev
featherpad:_ZN10FeatherPad13TextBlockData10insertInfoEPNS_11BracketInfoE
featherpad:_ZN10FeatherPad13TextBlockData10insertInfoEPNS_15ParenthesisInfoE
featherpad:_ZN10FeatherPad13TextBlockData10insertInfoEPNS_9BraceInfoE
featherpad:_ZN10FeatherPad13TextBlockData10insertInfoERK7QString
featherpad:_ZN10FeatherPad13TextBlockData11setPropertyEb
featherpad:_ZN10FeatherPad13TextBlockData12setLastStateEi
featherpad:_ZN10FeatherPad13TextBlockData14insertNestInfoEi
featherpad:_ZN10FeatherPad13TextBlockData14setHighlightedEv
featherpad:_ZN10FeatherPad13TextBlockData16insertOpenQuotesERK4QSetIiE
featherpad:_ZN10FeatherPad13TextBlockData24insertLastFormattedQuoteEi
featherpad:_ZN10FeatherPad13TextBlockData24insertLastFormattedRegexEi
featherpad:_ZN10FeatherPad13TextBlockDataD0Ev
featherpad:_ZN10FeatherPad13TextBlockDataD1Ev
featherpad:_ZN10FeatherPad13TextBlockDataD2Ev
featherpad:_ZN10FeatherPad13detectCharsetERK10QByteArray
featherpad:_ZN10FeatherPad13unshadeWindowEm
featherpad:_ZN10FeatherPad14LineNumberArea11qt_metacallEN11QMetaObject4CallEiPPv
featherpad:_ZN10FeatherPad14LineNumberArea11qt_metacastEPKc
featherpad:_ZN10FeatherPad14LineNumberArea16staticMetaObjectE
featherpad:_ZN10FeatherPad14isWindowShadedEm
featherpad:_ZN10FeatherPad14onWhichDesktopEm
featherpad:_ZN10FeatherPad17FPKeySequenceEdit11qt_metacallEN11QMetaObject4CallEiPPv
featherpad:_ZN10FeatherPad17FPKeySequenceEdit11qt_metacastEPKc
featherpad:_ZN10FeatherPad17FPKeySequenceEdit13keyPressEventEP9QKeyEvent
featherpad:_ZN10FeatherPad17FPKeySequenceEdit16staticMetaObjectE
featherpad:_ZN10FeatherPad17FPKeySequenceEditC1EP7QWidget
featherpad:_ZN10FeatherPad17FPKeySequenceEditC2EP7QWidget
featherpad:_ZN10FeatherPad5FPwin10closeEventEP11QCloseEvent
featherpad:_ZN10FeatherPad5FPwin10closePagesEiib
featherpad:_ZN10FeatherPad5FPwin10deleteTextEv
featherpad:_ZN10FeatherPad5FPwin10fontDialogEv
featherpad:_ZN10FeatherPad5FPwin10insertDateEv
featherpad:_ZN10FeatherPad5FPwin10lockWindowEPNS_7TabPageEb
featherpad:_ZN10FeatherPad5FPwin10prefDialogEv
featherpad:_ZN10FeatherPad5FPwin10replaceAllEv
featherpad:_ZN10FeatherPad5FPwin10resizeDockEb
featherpad:_ZN10FeatherPad5FPwin10saveAsRootERK7QStringPNS_7TabPageEiibP15QListWidgetItemS5_b
featherpad:_ZN10FeatherPad5FPwin10savePromptEibiibP15QListWidgetItemPNS_7TabPageE
featherpad:_ZN10FeatherPad5FPwin10stealFocusEP7QWidget
featherpad:_ZN10FeatherPad5FPwin10stealFocusEv
featherpad:_ZN10FeatherPad5FPwin10toSoftTabsEv
featherpad:_ZN10FeatherPad5FPwin11aboutDialogEv
featherpad:_ZN10FeatherPad5FPwin11changeEventEP6QEvent
featherpad:_ZN10FeatherPad5FPwin11defaultSizeEv
featherpad:_ZN10FeatherPad5FPwin11enforceLangEP7QAction
featherpad:_ZN10FeatherPad5FPwin11exitProcessEv
featherpad:_ZN10FeatherPad5FPwin11previousTabEv
featherpad:_ZN10FeatherPad5FPwin11qt_metacallEN11QMetaObject4CallEiPPv
featherpad:_ZN10FeatherPad5FPwin11qt_metacastEPKc
featherpad:_ZN10FeatherPad5FPwin11replaceDockEv
featherpad:_ZN10FeatherPad5FPwin11setProgLangEPNS_8TextEditE
featherpad:_ZN10FeatherPad5FPwin11setWinTitleERK7QString
featherpad:_ZN10FeatherPad5FPwin12displayErrorEv
featherpad:_ZN10FeatherPad5FPwin12enableSavingEb
featherpad:_ZN10FeatherPad5FPwin12makeEditableEv
featherpad:_ZN10FeatherPad5FPwin12menubarTitleEbb
featherpad:_ZN10FeatherPad5FPwin12onTabChangedEi
featherpad:_ZN10FeatherPad5FPwin12saveAllFilesEb
featherpad:_ZN10FeatherPad5FPwin12toggleIndentEv
featherpad:_ZN10FeatherPad5FPwin13addRecentFileERK7QString
featherpad:_ZN10FeatherPad5FPwin13checkSpellingEv
featherpad:_ZN10FeatherPad5FPwin13closeAllPagesEv
featherpad:_ZN10FeatherPad5FPwin13deleteTabPageEibb
featherpad:_ZN10FeatherPad5FPwin13displayOutputEv
featherpad:_ZN10FeatherPad5FPwin13focusSidePaneEv
featherpad:_ZN10FeatherPad5FPwin13hidngEditMenuEv
featherpad:_ZN10FeatherPad5FPwin13lastActiveTabEv
featherpad:_ZN10FeatherPad5FPwin13matchBracketsEv
featherpad:_ZN10FeatherPad5FPwin13selectAllTextEv
featherpad:_ZN10FeatherPad5FPwin13showCursorPosEv
featherpad:_ZN10FeatherPad5FPwin13updateLangBtnEPNS_8TextEditE
featherpad:_ZN10FeatherPad5FPwin14closeNextPagesEv
featherpad:_ZN10FeatherPad5FPwin14createEmptyTabEbb
featherpad:_ZN10FeatherPad5FPwin14displayMessageEb
featherpad:_ZN10FeatherPad5FPwin14dragEnterEventEP15QDragEnterEvent
featherpad:_ZN10FeatherPad5FPwin14executeProcessEv
featherpad:_ZN10FeatherPad5FPwin14manageSessionsEv
featherpad:_ZN10FeatherPad5FPwin14matchLeftBraceE10QTextBlockii
featherpad:_ZN10FeatherPad5FPwin14newTabFromNameERK7QStringiib
featherpad:_ZN10FeatherPad5FPwin14removeGreenSelEv
featherpad:_ZN10FeatherPad5FPwin14showHideSearchEv
featherpad:_ZN10FeatherPad5FPwin14showWarningBarERK7QStringib
featherpad:_ZN10FeatherPad5FPwin14tabContextMenuERK6QPoint
featherpad:_ZN10FeatherPad5FPwin14toggleSidePaneEv
featherpad:_ZN10FeatherPad5FPwin14toggleWrappingEv
featherpad:_ZN10FeatherPad5FPwin14updateWordInfoEiii
featherpad:_ZN10FeatherPad5FPwin15clearRecentMenuEv
featherpad:_ZN10FeatherPad5FPwin15closeOtherPagesEv
featherpad:_ZN10FeatherPad5FPwin15closeTabAtIndexEi
featherpad:_ZN10FeatherPad5FPwin15closeWarningBarEb
featherpad:_ZN10FeatherPad5FPwin15copyTabFileNameEv
featherpad:_ZN10FeatherPad5FPwin15copyTabFilePathEv
featherpad:_ZN10FeatherPad5FPwin15createSelectionEi
featherpad:_ZN10FeatherPad5FPwin15encodingToCheckERK7QString
featherpad:_ZN10FeatherPad5FPwin15enforceEncodingEP7QAction
featherpad:_ZN10FeatherPad5FPwin15finishedLoadingEv
featherpad:_ZN10FeatherPad5FPwin15listContextMenuERK6QPoint
featherpad:_ZN10FeatherPad5FPwin15matchRightBraceE10QTextBlockii
featherpad:_ZN10FeatherPad5FPwin15pauseAutoSavingEb
featherpad:_ZN10FeatherPad5FPwin15showRootWarningEv
featherpad:_ZN10FeatherPad5FPwin15showingEditMenuEv
featherpad:_ZN10FeatherPad5FPwin15startAutoSavingEbi
featherpad:_ZN10FeatherPad5FPwin15updateRecenMenuEv
featherpad:_ZN10FeatherPad5FPwin15updateShortcutsEbb
featherpad:_ZN10FeatherPad5FPwin16addRemoveLangBtnEb
featherpad:_ZN10FeatherPad5FPwin16disconnectLambdaEv
featherpad:_ZN10FeatherPad5FPwin16hasAnotherDialogEv
featherpad:_ZN10FeatherPad5FPwin16matchLeftBracketE10QTextBlockii
featherpad:_ZN10FeatherPad5FPwin16newTabFromRecentEv
featherpad:_ZN10FeatherPad5FPwin16staticMetaObjectE
featherpad:_ZN10FeatherPad5FPwin17addCursorPosLabelEv
featherpad:_ZN10FeatherPad5FPwin17editorContextMenuERK6QPoint
featherpad:_ZN10FeatherPad5FPwin17matchRightBracketE10QTextBlockii
featherpad:_ZN10FeatherPad5FPwin17searchFlagChangedEv
featherpad:_ZN10FeatherPad5FPwin18closePreviousPagesEv
featherpad:_ZN10FeatherPad5FPwin18onOpeningHugeFilesEv
featherpad:_ZN10FeatherPad5FPwin18onPermissionDeniedEv
featherpad:_ZN10FeatherPad5FPwin18syntaxHighlightingEPNS_8TextEditEbRK7QString
featherpad:_ZN10FeatherPad5FPwin19onOpeningUneditableEv
featherpad:_ZN10FeatherPad5FPwin20cleanUpOnTerminatingERNS_6ConfigEb
featherpad:_ZN10FeatherPad5FPwin20matchLeftParenthesisE10QTextBlockii
featherpad:_ZN10FeatherPad5FPwin20onOpeninNonTextFilesEv
featherpad:_ZN10FeatherPad5FPwin20onOpeningNonexistentEv
featherpad:_ZN10FeatherPad5FPwin21applyConfigOnStartingEv
featherpad:_ZN10FeatherPad5FPwin21dockVisibilityChangedEb
featherpad:_ZN10FeatherPad5FPwin21matchRightParenthesisE10QTextBlockii
featherpad:_ZN10FeatherPad5FPwin21updateGUIForSingleTabEb
featherpad:_ZN10FeatherPad5FPwin22statusMsgWithLineCountEi
featherpad:_ZN10FeatherPad5FPwin23reloadSyntaxHighlighterEPNS_8TextEditE
featherpad:_ZN10FeatherPad5FPwin24toggleSyntaxHighlightingEv
featherpad:_ZN10FeatherPad5FPwin27updateCustomizableShortcutsEb
featherpad:_ZN10FeatherPad5FPwin4findEb
featherpad:_ZN10FeatherPad5FPwin4goToEv
featherpad:_ZN10FeatherPad5FPwin5eventEP6QEvent
featherpad:_ZN10FeatherPad5FPwin6jumpToEv
featherpad:_ZN10FeatherPad5FPwin6newTabEv
featherpad:_ZN10FeatherPad5FPwin6reloadEv
featherpad:_ZN10FeatherPad5FPwin6setMaxEi
featherpad:_ZN10FeatherPad5FPwin6showLNEb
featherpad:_ZN10FeatherPad5FPwin6unbusyEv
featherpad:_ZN10FeatherPad5FPwin6zoomInEv
featherpad:_ZN10FeatherPad5FPwin7addTextERK7QStringS3_S3_bbiibb
featherpad:_ZN10FeatherPad5FPwin7cutTextEv
featherpad:_ZN10FeatherPad5FPwin7docPropEv
featherpad:_ZN10FeatherPad5FPwin7dropTabERK7QStringP7QObject
featherpad:_ZN10FeatherPad5FPwin7helpDocEv
featherpad:_ZN10FeatherPad5FPwin7lastTabEv
featherpad:_ZN10FeatherPad5FPwin7nextTabEv
featherpad:_ZN10FeatherPad5FPwin7redoingEv
featherpad:_ZN10FeatherPad5FPwin7replaceEv
featherpad:_ZN10FeatherPad5FPwin7undoingEv
featherpad:_ZN10FeatherPad5FPwin7zoomOutEv
featherpad:_ZN10FeatherPad5FPwin8asteriskEb
featherpad:_ZN10FeatherPad5FPwin8autoSaveEv
featherpad:_ZN10FeatherPad5FPwin8copyTextEv
featherpad:_ZN10FeatherPad5FPwin8fileOpenEv
featherpad:_ZN10FeatherPad5FPwin8firstTabEv
featherpad:_ZN10FeatherPad5FPwin8loadTextERK7QStringbbiibb
featherpad:_ZN10FeatherPad5FPwin8makeBusyEv
featherpad:_ZN10FeatherPad5FPwin8reformatEPNS_8TextEditE
featherpad:_ZN10FeatherPad5FPwin8saveFileEbiibP15QListWidgetItemPNS_7TabPageE
featherpad:_ZN10FeatherPad5FPwin8setTitleERK7QStringi
featherpad:_ZN10FeatherPad5FPwin8userDictEv
featherpad:_ZN10FeatherPad5FPwin8zoomZeroEv
featherpad:_ZN10FeatherPad5FPwin9changeTabEP15QListWidgetItem
featherpad:_ZN10FeatherPad5FPwin9closePageEv
featherpad:_ZN10FeatherPad5FPwin9detachTabEv
featherpad:_ZN10FeatherPad5FPwin9dropEventEP10QDropEvent
featherpad:_ZN10FeatherPad5FPwin9filePrintEv
featherpad:_ZN10FeatherPad5FPwin9focusViewEv
featherpad:_ZN10FeatherPad5FPwin9lowerCaseEv
featherpad:_ZN10FeatherPad5FPwin9pasteTextEv
featherpad:_ZN10FeatherPad5FPwin9showEventEP10QShowEvent
featherpad:_ZN10FeatherPad5FPwin9sortLinesEv
featherpad:_ZN10FeatherPad5FPwin9startCaseEv
featherpad:_ZN10FeatherPad5FPwin9statusMsgEv
featherpad:_ZN10FeatherPad5FPwin9tabSwitchEi
featherpad:_ZN10FeatherPad5FPwin9upperCaseEv
featherpad:_ZN10FeatherPad5FPwinC1EP7QWidget
featherpad:_ZN10FeatherPad5FPwinC2EP7QWidget
featherpad:_ZN10FeatherPad5FPwinD0Ev
featherpad:_ZN10FeatherPad5FPwinD1Ev
featherpad:_ZN10FeatherPad5FPwinD2Ev
featherpad:_ZN10FeatherPad6Config10readConfigEv
featherpad:_ZN10FeatherPad6Config11writeConfigEv
featherpad:_ZN10FeatherPad6Config12getLastFilesEv
featherpad:_ZN10FeatherPad6Config13addRecentFileERK7QString
featherpad:_ZN10FeatherPad6Config13readCursorPosEv
featherpad:_ZN10FeatherPad6Config13readShortcutsEv
featherpad:_ZN10FeatherPad6Config14writeCursorPosEv
featherpad:_ZN10FeatherPad6Config16readSyntaxColorsEv
featherpad:_ZN10FeatherPad6Config17validatedShortcutE8QVariantPb
featherpad:_ZN10FeatherPad6Config17writeSyntaxColorsEv
featherpad:_ZN10FeatherPad6Config18setWhiteSpaceValueEi
featherpad:_ZN10FeatherPad6Config19setCurLineHighlightEi
featherpad:_ZN10FeatherPad6Config21setDfaultSyntaxColorsEv
featherpad:_ZN10FeatherPad6Config9resetFontEv
featherpad:_ZN10FeatherPad6ConfigC1Ev
featherpad:_ZN10FeatherPad6ConfigC2Ev
featherpad:_ZN10FeatherPad6ConfigD1Ev
featherpad:_ZN10FeatherPad6ConfigD2Ev
featherpad:_ZN10FeatherPad6TabBar10hideTabBarEv
featherpad:_ZN10FeatherPad6TabBar10tabDroppedE
featherpad:_ZN10FeatherPad6TabBar10tabRemovedEi
featherpad:_ZN10FeatherPad6TabBar10wheelEventEP11QWheelEvent
featherpad:_ZN10FeatherPad6TabBar11addEmptyTabEv
featherpad:_ZN10FeatherPad6TabBar11qt_metacallEN11QMetaObject4CallEiPPv
featherpad:_ZN10FeatherPad6TabBar11qt_metacastEPKc
featherpad:_ZN10FeatherPad6TabBar11tabDetachedEv
featherpad:_ZN10FeatherPad6TabBar11tabInsertedEi
featherpad:_ZN10FeatherPad6TabBar12releaseMouseEv
featherpad:_ZN10FeatherPad6TabBar14mouseMoveEventEP11QMouseEvent
featherpad:_ZN10FeatherPad6TabBar15mousePressEventEP11QMouseEvent
featherpad:_ZN10FeatherPad6TabBar16staticMetaObjectE
featherpad:_ZN10FeatherPad6TabBar17mouseReleaseEventEP11QMouseEvent
featherpad:_ZN10FeatherPad6TabBar20finishMouseMoveEventEv
featherpad:_ZN10FeatherPad6TabBar5eventEP6QEvent
featherpad:_ZN10FeatherPad6TabBarC1EP7QWidget
featherpad:_ZN10FeatherPad6TabBarC2EP7QWidget
featherpad:_ZN10FeatherPad7Loading11qt_metacallEN11QMetaObject4CallEiPPv
featherpad:_ZN10FeatherPad7Loading11qt_metacastEPKc
featherpad:_ZN10FeatherPad7Loading16staticMetaObjectE
featherpad:_ZN10FeatherPad7Loading3runEv
featherpad:_ZN10FeatherPad7Loading9completedERK7QStringS3_S3_bbiibb
featherpad:_ZN10FeatherPad7LoadingC1ERK7QStringS3_biibb
featherpad:_ZN10FeatherPad7LoadingC2ERK7QStringS3_biibb
featherpad:_ZN10FeatherPad7LoadingD0Ev
featherpad:_ZN10FeatherPad7LoadingD1Ev
featherpad:_ZN10FeatherPad7LoadingD2Ev
featherpad:_ZN10FeatherPad7TabPage11qt_metacallEN11QMetaObject4CallEiPPv
featherpad:_ZN10FeatherPad7TabPage11qt_metacastEPKc
featherpad:_ZN10FeatherPad7TabPage14focusSearchBarEv
featherpad:_ZN10FeatherPad7TabPage15updateShortcutsEb
featherpad:_ZN10FeatherPad7TabPage16clearSearchEntryEv
featherpad:_ZN10FeatherPad7TabPage16staticMetaObjectE
featherpad:_ZN10FeatherPad7TabPage17searchFlagChangedEv
featherpad:_ZN10FeatherPad7TabPage19setSearchBarVisibleEb
featherpad:_ZN10FeatherPad7TabPage4findEb
featherpad:_ZN10FeatherPad7TabPage8lockPageEb
featherpad:_ZN10FeatherPad7TabPageC1EiRK5QListI12QKeySequenceEP7QWidget
featherpad:_ZN10FeatherPad7TabPageC2EiRK5QListI12QKeySequenceEP7QWidget
featherpad:_ZN10FeatherPad8ComboBox11eventFilterEP7QObjectP6QEvent
featherpad:_ZN10FeatherPad8ComboBox11qt_metacallEN11QMetaObject4CallEiPPv
featherpad:_ZN10FeatherPad8ComboBox11qt_metacastEPKc
featherpad:_ZN10FeatherPad8ComboBox13keyPressEventEP9QKeyEvent
featherpad:_ZN10FeatherPad8ComboBox13moveInHistoryEi
featherpad:_ZN10FeatherPad8ComboBox16staticMetaObjectE
featherpad:_ZN10FeatherPad8ComboBoxC1EP7QWidget
featherpad:_ZN10FeatherPad8ComboBoxC2EP7QWidget
featherpad:_ZN10FeatherPad8Delegate11eventFilterEP7QObjectP6QEvent
featherpad:_ZN10FeatherPad8Delegate11qt_metacallEN11QMetaObject4CallEiPPv
featherpad:_ZN10FeatherPad8Delegate11qt_metacastEPKc
featherpad:_ZN10FeatherPad8Delegate16staticMetaObjectE
featherpad:_ZN10FeatherPad8DelegateC1EP7QObject
featherpad:_ZN10FeatherPad8DelegateC2EP7QObject
featherpad:_ZN10FeatherPad8LineEdit11qt_metacallEN11QMetaObject4CallEiPPv
featherpad:_ZN10FeatherPad8LineEdit11qt_metacastEPKc
featherpad:_ZN10FeatherPad8LineEdit12focusInEventEP11QFocusEvent
featherpad:_ZN10FeatherPad8LineEdit13keyPressEventEP9QKeyEvent
featherpad:_ZN10FeatherPad8LineEdit13receivedFocusEv
featherpad:_ZN10FeatherPad8LineEdit14showComboPopupEv
featherpad:_ZN10FeatherPad8LineEdit16staticMetaObjectE
featherpad:_ZN10FeatherPad8LineEditC1EP7QWidget
featherpad:_ZN10FeatherPad8LineEditC2EP7QWidget
featherpad:_ZN10FeatherPad8Printing11qt_metacallEN11QMetaObject4CallEiPPv
featherpad:_ZN10FeatherPad8Printing11qt_metacastEPKc
featherpad:_ZN10FeatherPad8Printing16staticMetaObjectE
featherpad:_ZN10FeatherPad8Printing3runEv
featherpad:_ZN10FeatherPad8PrintingC1EP13QTextDocumentRK7QStringRK6QColoridd
featherpad:_ZN10FeatherPad8PrintingC2EP13QTextDocumentRK7QStringRK6QColoridd
featherpad:_ZN10FeatherPad8PrintingD0Ev
featherpad:_ZN10FeatherPad8PrintingD1Ev
featherpad:_ZN10FeatherPad8PrintingD2Ev
featherpad:_ZN10FeatherPad8Settings11qt_metacallEN11QMetaObject4CallEiPPv
featherpad:_ZN10FeatherPad8Settings11qt_metacastEPKc
featherpad:_ZN10FeatherPad8Settings16staticMetaObjectE
featherpad:_ZN10FeatherPad8SidePane11eventFilterEP7QObjectP6QEvent
featherpad:_ZN10FeatherPad8SidePane11qt_metacallEN11QMetaObject4CallEiPPv
featherpad:_ZN10FeatherPad8SidePane11qt_metacastEPKc
featherpad:_ZN10FeatherPad8SidePane14onRowsInsertedEii
featherpad:_ZN10FeatherPad8SidePane16staticMetaObjectE
featherpad:_ZN10FeatherPad8SidePane17reallyApplyFilterEv
featherpad:_ZN10FeatherPad8SidePane6filterERK7QString
featherpad:_ZN10FeatherPad8SidePane8lockPaneEb
featherpad:_ZN10FeatherPad8SidePaneC1EP7QWidget
featherpad:_ZN10FeatherPad8SidePaneC2EP7QWidget
featherpad:_ZN10FeatherPad8SidePaneD0Ev
featherpad:_ZN10FeatherPad8SidePaneD1Ev
featherpad:_ZN10FeatherPad8SidePaneD2Ev
featherpad:_ZN10FeatherPad8TextEdit10paintEventEP11QPaintEvent
featherpad:_ZN10FeatherPad8TextEdit10selChangedEv
featherpad:_ZN10FeatherPad8TextEdit10timerEventEP11QTimerEvent
featherpad:_ZN10FeatherPad8TextEdit10toSoftTabsEv
featherpad:_ZN10FeatherPad8TextEdit10updateRectEv
featherpad:_ZN10FeatherPad8TextEdit10wheelEventEP11QWheelEvent
featherpad:_ZN10FeatherPad8TextEdit11eventFilterEP7QObjectP6QEvent
featherpad:_ZN10FeatherPad8TextEdit11fileDroppedERK7QStringiib
featherpad:_ZN10FeatherPad8TextEdit11qt_metacallEN11QMetaObject4CallEiPPv
featherpad:_ZN10FeatherPad8TextEdit11qt_metacastEPKc
featherpad:_ZN10FeatherPad8TextEdit11resizeEventEP12QResizeEvent
featherpad:_ZN10FeatherPad8TextEdit13keyPressEventEP9QKeyEvent
featherpad:_ZN10FeatherPad8TextEdit13setEditorFontERK5QFontb
featherpad:_ZN10FeatherPad8TextEdit14mouseMoveEventEP11QMouseEvent
featherpad:_ZN10FeatherPad8TextEdit14setViewPostionENS0_12viewPositionE
featherpad:_ZN10FeatherPad8TextEdit15insertPlainTextERK7QString
featherpad:_ZN10FeatherPad8TextEdit15keyReleaseEventEP9QKeyEvent
featherpad:_ZN10FeatherPad8TextEdit15mousePressEventEP11QMouseEvent
featherpad:_ZN10FeatherPad8TextEdit15selectionHlightEv
featherpad:_ZN10FeatherPad8TextEdit15showLineNumbersEb
featherpad:_ZN10FeatherPad8TextEdit16adjustScrollbarsEv
featherpad:_ZN10FeatherPad8TextEdit16onContentsChangeEiii
featherpad:_ZN10FeatherPad8TextEdit16staticMetaObjectE
featherpad:_ZN10FeatherPad8TextEdit17mouseReleaseEventEP11QMouseEvent
featherpad:_ZN10FeatherPad8TextEdit17scrollWithInertiaEv
featherpad:_ZN10FeatherPad8TextEdit18insertFromMimeDataEPK9QMimeData
featherpad:_ZN10FeatherPad8TextEdit18onSelectionChangedEv
featherpad:_ZN10FeatherPad8TextEdit18onUpdateRequestingERK5QRecti
featherpad:_ZN10FeatherPad8TextEdit19lineNumberAreaWidthEv
featherpad:_ZN10FeatherPad8TextEdit19setCurLineHighlightEi
featherpad:_ZN10FeatherPad8TextEdit20highlightCurrentLineEv
featherpad:_ZN10FeatherPad8TextEdit20updateLineNumberAreaERK5QRecti
featherpad:_ZN10FeatherPad8TextEdit21mouseDoubleClickEventEP11QMouseEvent
featherpad:_ZN10FeatherPad8TextEdit21updateBracketMatchingEv
featherpad:_ZN10FeatherPad8TextEdit24lineNumberAreaPaintEventEP11QPaintEvent
featherpad:_ZN10FeatherPad8TextEdit24setSelectionHighlightingEb
featherpad:_ZN10FeatherPad8TextEdit25updateLineNumberAreaWidthEi
featherpad:_ZN10FeatherPad8TextEdit3cutEv
featherpad:_ZN10FeatherPad8TextEdit4copyEv
featherpad:_ZN10FeatherPad8TextEdit4redoEv
featherpad:_ZN10FeatherPad8TextEdit4undoEv
featherpad:_ZN10FeatherPad8TextEdit5eventEP6QEvent
featherpad:_ZN10FeatherPad8TextEdit5pasteEv
featherpad:_ZN10FeatherPad8TextEdit7resizedEv
featherpad:_ZN10FeatherPad8TextEdit7zoomingEf
featherpad:_ZN10FeatherPad8TextEdit9selectAllEv
featherpad:_ZN10FeatherPad8TextEdit9showEventEP10QShowEvent
featherpad:_ZN10FeatherPad8TextEdit9sortLinesEb
featherpad:_ZN10FeatherPad8TextEdit9zoomedOutEPS0_
featherpad:_ZN10FeatherPad8TextEditC1EP7QWidgeti
featherpad:_ZN10FeatherPad8TextEditC2EP7QWidgeti
featherpad:_ZN10FeatherPad8TextEditD0Ev
featherpad:_ZN10FeatherPad8TextEditD1Ev
featherpad:_ZN10FeatherPad8TextEditD2Ev
featherpad:_ZN10FeatherPad9SearchBar11findForwardEv
featherpad:_ZN10FeatherPad9SearchBar11qt_metacallEN11QMetaObject4CallEiPPv
featherpad:_ZN10FeatherPad9SearchBar11qt_metacastEPKc
featherpad:_ZN10FeatherPad9SearchBar12findBackwardEv
featherpad:_ZN10FeatherPad9SearchBar13focusLineEditEv
featherpad:_ZN10FeatherPad9SearchBar13searchStartedEv
featherpad:_ZN10FeatherPad9SearchBar14setSearchModelEP18QStandardItemModel
featherpad:_ZN10FeatherPad9SearchBar15updateShortcutsEb
featherpad:_ZN10FeatherPad9SearchBar16clearSearchEntryEv
featherpad:_ZN10FeatherPad9SearchBar16staticMetaObjectE
featherpad:_ZN10FeatherPad9SearchBar17searchFlagChangedEv
featherpad:_ZN10FeatherPad9SearchBar4findEb
featherpad:_ZN10FeatherPad9SearchBarC1EP7QWidgetRK5QListI12QKeySequenceE6QFlagsIN2Qt10WindowTypeEE
featherpad:_ZN10FeatherPad9SearchBarC2EP7QWidgetRK5QListI12QKeySequenceE6QFlagsIN2Qt10WindowTypeEE
featherpad:_ZN10FeatherPad9TabWidget10timerEventEP11QTimerEvent
featherpad:_ZN10FeatherPad9TabWidget11qt_metacallEN11QMetaObject4CallEiPPv
featherpad:_ZN10FeatherPad9TabWidget11qt_metacastEPKc
featherpad:_ZN10FeatherPad9TabWidget13keyPressEventEP9QKeyEvent
featherpad:_ZN10FeatherPad9TabWidget16getLastActiveTabEv
featherpad:_ZN10FeatherPad9TabWidget16hasLastActiveTabEb
featherpad:_ZN10FeatherPad9TabWidget16staticMetaObjectE
featherpad:_ZN10FeatherPad9TabWidget17currentTabChangedEi
featherpad:_ZN10FeatherPad9TabWidget19selectLastActiveTabEv
featherpad:_ZN10FeatherPad9TabWidget9removeTabEi
featherpad:_ZN10FeatherPad9TabWidget9tabSwitchEi
featherpad:_ZN10FeatherPad9TabWidgetC1EP7QWidget
featherpad:_ZN10FeatherPad9TabWidgetC2EP7QWidget
featherpad:_ZN10FeatherPad9TabWidgetD0Ev
featherpad:_ZN10FeatherPad9TabWidgetD1Ev
featherpad:_ZN10FeatherPad9TabWidgetD2Ev
featherpad:_ZN17FeatherPadAdaptor10handleInfoERK11QStringList
featherpad:_ZN17FeatherPadAdaptor11qt_metacallEN11QMetaObject4CallEiPPv
featherpad:_ZN17FeatherPadAdaptor11qt_metacastEPKc
featherpad:_ZN17FeatherPadAdaptor13addRecentFileERK7QStringb
featherpad:_ZN17FeatherPadAdaptor16staticMetaObjectE
featherpad:_ZN17FeatherPadAdaptorC1EPN10FeatherPad11FPsingletonE
featherpad:_ZN17FeatherPadAdaptorC2EPN10FeatherPad11FPsingletonE
featherpad:_ZN17FeatherPadAdaptorD0Ev
featherpad:_ZN17FeatherPadAdaptorD1Ev
featherpad:_ZN17FeatherPadAdaptorD2Ev
featherpad:_ZNK10FeatherPad10FileDialog10metaObjectEv
featherpad:_ZNK10FeatherPad10FontDialog10metaObjectEv
featherpad:_ZNK10FeatherPad10ListWidget10metaObjectEv
featherpad:_ZNK10FeatherPad10ListWidget16getItemFromIndexERK11QModelIndex
featherpad:_ZNK10FeatherPad10ListWidget16selectionCommandERK11QModelIndexPK6QEvent
featherpad:_ZNK10FeatherPad10MessageBox10metaObjectEv
featherpad:_ZNK10FeatherPad10PrefDialog10metaObjectEv
featherpad:_ZNK10FeatherPad10VScrollBar10metaObjectEv
featherpad:_ZNK10FeatherPad10WarningBar10metaObjectEv
featherpad:_ZNK10FeatherPad11FPsingleton10metaObjectEv
featherpad:_ZNK10FeatherPad11Highlighter10isLuaQuoteERK7QStringi
featherpad:_ZNK10FeatherPad11Highlighter10metaObjectEv
featherpad:_ZNK10FeatherPad11Highlighter13findDelimiterERK7QStringiRK18QRegularExpressionRi
featherpad:_ZNK10FeatherPad11Highlighter13isEscapedCharERK7QStringi
featherpad:_ZNK10FeatherPad11Highlighter14isPascalQuotedERK7QStringii
featherpad:_ZNK10FeatherPad11Highlighter17findRubyDelimiterERK7QStringiRK18QRegularExpressionRi
featherpad:_ZNK10FeatherPad11Highlighter18isEscapedJavaQuoteERK7QStringib
featherpad:_ZNK10FeatherPad11Highlighter19isIndentedCodeBlockERK7QStringRiR23QRegularExpressionMatch
featherpad:_ZNK10FeatherPad11Highlighter19isPascalMLCommentedERK7QStringii
featherpad:_ZNK10FeatherPad11Highlighter21isEscapedRegexEndSignERK7QStringiib
featherpad:_ZNK10FeatherPad11Highlighter21textEndsWithBackSlashERK7QString
featherpad:_ZNK10FeatherPad11Highlighter22isSingleLineLuaCommentERK7QStringii
featherpad:_ZNK10FeatherPad11Highlighter25isJavaSingleCommentQuotedERK7QStringii
featherpad:_ZNK10FeatherPad11Highlighter27isJavaStartQuoteMLCommentedERK7QStringii
featherpad:_ZNK10FeatherPad11SpellDialog10metaObjectEv
featherpad:_ZNK10FeatherPad11SpellDialog11replacementEv
featherpad:_ZNK10FeatherPad12MenuBarTitle10metaObjectEv
featherpad:_ZNK10FeatherPad12MenuBarTitle8sizeHintEv
featherpad:_ZNK10FeatherPad12signalDaemon10metaObjectEv
featherpad:_ZNK10FeatherPad13SessionDialog10metaObjectEv
featherpad:_ZNK10FeatherPad13TextBlockData10openQuotesEv
featherpad:_ZNK10FeatherPad13TextBlockData11getPropertyEv
featherpad:_ZNK10FeatherPad13TextBlockData11parenthesesEv
featherpad:_ZNK10FeatherPad13TextBlockData13isHighlightedEv
featherpad:_ZNK10FeatherPad13TextBlockData18lastFormattedQuoteEv
featherpad:_ZNK10FeatherPad13TextBlockData18lastFormattedRegexEv
featherpad:_ZNK10FeatherPad13TextBlockData6bracesEv
featherpad:_ZNK10FeatherPad13TextBlockData8bracketsEv
featherpad:_ZNK10FeatherPad13TextBlockData9labelInfoEv
featherpad:_ZNK10FeatherPad13TextBlockData9lastStateEv
featherpad:_ZNK10FeatherPad13TextBlockData9openNestsEv
featherpad:_ZNK10FeatherPad14LineNumberArea10metaObjectEv
featherpad:_ZNK10FeatherPad14ListWidgetItemltERK15QListWidgetItem
featherpad:_ZNK10FeatherPad17FPKeySequenceEdit10metaObjectEv
featherpad:_ZNK10FeatherPad5FPwin10metaObjectEv
featherpad:_ZNK10FeatherPad5FPwin11alreadyOpenEPNS_7TabPageE
featherpad:_ZNK10FeatherPad5FPwin12isScriptLangERK7QString
featherpad:_ZNK10FeatherPad5FPwin13enableWidgetsEb
featherpad:_ZNK10FeatherPad5FPwin14formatTextRectEv
featherpad:_ZNK10FeatherPad5FPwin14getSearchFlagsEv
featherpad:_ZNK10FeatherPad5FPwin15checkToEncodingEv
featherpad:_ZNK10FeatherPad5FPwin18formatOnTextChangeEiii
featherpad:_ZNK10FeatherPad5FPwin19formatOnBlockChangeEi
featherpad:_ZNK10FeatherPad5FPwin6hlightEv
featherpad:_ZNK10FeatherPad6TabBar10metaObjectEv
featherpad:_ZNK10FeatherPad6TabBar11tabSizeHintEi
featherpad:_ZNK10FeatherPad6TabBar18minimumTabSizeHintEi
featherpad:_ZNK10FeatherPad7Loading10metaObjectEv
featherpad:_ZNK10FeatherPad7TabPage10matchRegexEv
featherpad:_ZNK10FeatherPad7TabPage10matchWholeEv
featherpad:_ZNK10FeatherPad7TabPage10metaObjectEv
featherpad:_ZNK10FeatherPad7TabPage11searchEntryEv
featherpad:_ZNK10FeatherPad7TabPage17searchBarHasFocusEv
featherpad:_ZNK10FeatherPad7TabPage18isSearchBarVisibleEv
featherpad:_ZNK10FeatherPad7TabPage9matchCaseEv
featherpad:_ZNK10FeatherPad8ComboBox10metaObjectEv
featherpad:_ZNK10FeatherPad8Delegate10metaObjectEv
featherpad:_ZNK10FeatherPad8Delegate12createEditorEP7QWidgetRK20QStyleOptionViewItemRK11QModelIndex
featherpad:_ZNK10FeatherPad8LineEdit10metaObjectEv
featherpad:_ZNK10FeatherPad8Printing10metaObjectEv
featherpad:_ZNK10FeatherPad8Settings10metaObjectEv
featherpad:_ZNK10FeatherPad8SidePane10metaObjectEv
featherpad:_ZNK10FeatherPad8TextEdit10metaObjectEv
featherpad:_ZNK10FeatherPad8TextEdit13backTabCursorERK11QTextCursorb
featherpad:_ZNK10FeatherPad8TextEdit15getViewPositionEv
featherpad:_ZNK10FeatherPad8TextEdit15remainingSpacesERK7QStringRK11QTextCursor
featherpad:_ZNK10FeatherPad8TextEdit18computeIndentationERK11QTextCursor
featherpad:_ZNK10FeatherPad8TextEdit21canInsertFromMimeDataEPK9QMimeData
featherpad:_ZNK10FeatherPad8TextEdit27createMimeDataFromSelectionEv
featherpad:_ZNK10FeatherPad8TextEdit6getUrlEi
featherpad:_ZNK10FeatherPad8TextEdit7findingERK7QStringRK11QTextCursor6QFlagsIN13QTextDocument8FindFlagEEbi
featherpad:_ZNK10FeatherPad9SearchBar10matchRegexEv
featherpad:_ZNK10FeatherPad9SearchBar10matchWholeEv
featherpad:_ZNK10FeatherPad9SearchBar10metaObjectEv
featherpad:_ZNK10FeatherPad9SearchBar11searchEntryEv
featherpad:_ZNK10FeatherPad9SearchBar16lineEditHasFocusEv
featherpad:_ZNK10FeatherPad9SearchBar9matchCaseEv
featherpad:_ZNK10FeatherPad9TabWidget10metaObjectEv
featherpad:_ZNK17FeatherPadAdaptor10metaObjectEv
featherpad:_ZThn16_N10FeatherPad10FontDialogD0Ev
featherpad:_ZThn16_N10FeatherPad10FontDialogD1Ev
featherpad:_ZThn16_N10FeatherPad10PrefDialogD0Ev
featherpad:_ZThn16_N10FeatherPad10PrefDialogD1Ev
featherpad:_ZThn16_N10FeatherPad11SpellDialogD0Ev
featherpad:_ZThn16_N10FeatherPad11SpellDialogD1Ev
featherpad:_ZThn16_N10FeatherPad13SessionDialogD0Ev
featherpad:_ZThn16_N10FeatherPad13SessionDialogD1Ev
featherpad:_ZThn16_N10FeatherPad5FPwinD0Ev
featherpad:_ZThn16_N10FeatherPad5FPwinD1Ev
featherpad:_ZThn16_N10FeatherPad8SidePaneD0Ev
featherpad:_ZThn16_N10FeatherPad8SidePaneD1Ev
featherpad:_ZThn16_N10FeatherPad8TextEditD0Ev
featherpad:_ZThn16_N10FeatherPad8TextEditD1Ev
featherpad:_ZThn16_N10FeatherPad9TabWidgetD0Ev
featherpad:_ZThn16_N10FeatherPad9TabWidgetD1Ev
featherpad:__bss_start
featherpad:__data_start
featherpad:_edata
featherpad:_end
featherpad:_start
featherpad:main
